target datalayout = "e-m:e-p270:32:32-p271:32:32-p272:64:64-i64:64-i128:128-f80:128-n8:16:32:64-S128"
target triple = "x86_64-pc-linux-gnu"

%class.ExtcapArgument = type { %class.QObject, %class.QList, ptr, ptr, i32, %class.QString }
%class.QObject = type { ptr, %class.QScopedPointer }
%class.QScopedPointer = type { ptr }
%class.QList = type { %struct.QArrayDataPointer }
%struct.QArrayDataPointer = type { ptr, ptr, i64 }
%class.QString = type { %struct.QArrayDataPointer.0 }
%struct.QArrayDataPointer.0 = type { ptr, ptr, i64 }
%struct._extcap_arg = type { i32, ptr, ptr, ptr, ptr, ptr, i8, i8, i8, i8, ptr, ptr, i32, ptr, ptr, ptr, ptr, ptr, ptr }

; Function Attrs: mustprogress nounwind null_pointer_is_valid sspstrong uwtable
define noundef zeroext i1 @_ZN14ExtcapArgument10isRequiredEv(ptr noundef align 8 dereferenceable_or_null(88) %0) #5 align 2 {
  %2 = alloca i1, align 1
  %3 = alloca ptr, align 8
  store ptr %0, ptr %3, align 8
  %4 = load ptr, ptr %3, align 8
  %5 = getelementptr inbounds nuw %class.ExtcapArgument, ptr %4, i32 0, i32 2
  %6 = load ptr, ptr %5, align 8
  %7 = icmp ne ptr %6, null
  br i1 %7, label %8, label %14

8:                                                ; preds = %1
  %9 = getelementptr inbounds nuw %class.ExtcapArgument, ptr %4, i32 0, i32 2
  %10 = load ptr, ptr %9, align 8
  %11 = getelementptr inbounds nuw %struct._extcap_arg, ptr %10, i32 0, i32 7
  %12 = load i8, ptr %11, align 1, !range !6, !noundef !7
  %13 = trunc i8 %12 to i1
  store i1 %13, ptr %2, align 1
  br label %15

14:                                               ; preds = %1
  store i1 false, ptr %2, align 1
  br label %15

15:                                               ; preds = %14, %8
  %16 = load i1, ptr %2, align 1
  ret i1 %16
}